; Function Attrs: mustprogress uwtable
define void @_ZN5folly16LogHandlerConfig6updateERKS0_(ptr noundef nonnull align 8 dereferenceable(96) %0, ptr noundef nonnull readonly align 8 captures(none) dereferenceable(96) %1) local_unnamed_addr #3 align 2 {
  %3 = getelementptr inbounds nuw i8, ptr %1, i64 56
  %.sroa.06.09 = load ptr, ptr %3, align 8, !tbaa !63
  %.not10 = icmp eq ptr %.sroa.06.09, null
  br i1 %.not10, label %._crit_edge, label %.lr.ph

.lr.ph:                                           ; preds = %2
  %4 = getelementptr inbounds nuw i8, ptr %0, i64 40
  br label %5

._crit_edge:                                      ; preds = %5, %2
  ret void

5:                                                ; preds = %.lr.ph, %5
  %.sroa.06.011 = phi ptr [ %.sroa.06.09, %.lr.ph ], [ %.sroa.06.0, %5 ]
  %6 = getelementptr inbounds nuw i8, ptr %.sroa.06.011, i64 8
  %7 = getelementptr inbounds nuw i8, ptr %.sroa.06.011, i64 40
  %8 = tail call noundef nonnull align 8 dereferenceable(32) ptr @_ZNSt8__detail9_Map_baseINSt7__cxx1112basic_stringIcSt11char_traitsIcESaIcEEESt4pairIKS6_S6_ESaIS9_ENS_10_Select1stESt8equal_toIS6_ESt4hashIS6_ENS_18_Mod_range_hashingENS_20_Default_ranged_hashENS_20_Prime_rehash_policyENS_17_Hashtable_traitsILb1ELb0ELb1EEELb1EEixERS8_(ptr noundef nonnull align 8 dereferenceable(56) %4, ptr noundef nonnull align 8 dereferenceable(32) %6)
  tail call void @_ZNSt7__cxx1112basic_stringIcSt11char_traitsIcESaIcEE9_M_assignERKS4_(ptr noundef nonnull align 8 dereferenceable(32) %8, ptr noundef nonnull align 8 dereferenceable(32) %7)
  %.sroa.06.0 = load ptr, ptr %.sroa.06.011, align 8, !tbaa !63
  %.not = icmp eq ptr %.sroa.06.0, null
  br i1 %.not, label %._crit_edge, label %5
}